target datalayout = "e-m:e-p270:32:32-p271:32:32-p272:64:64-i64:64-i128:128-f80:128-n8:16:32:64-S128"
target triple = "x86_64-unknown-linux-gnu"

; Function Attrs: mustprogress uwtable
define linkonce_odr void @_ZN6icu_758Calendar7setTimeEdR10UErrorCode(ptr noundef nonnull align 8 dereferenceable(618) %this, double noundef %date, ptr noundef nonnull align 4 dereferenceable(4) %status) #1 comdat align 2 {
entry:
  %this.addr = alloca ptr, align 8
  %date.addr = alloca double, align 8
  %status.addr = alloca ptr, align 8
  store ptr %this, ptr %this.addr, align 8
  store double %date, ptr %date.addr, align 8
  store ptr %status, ptr %status.addr, align 8
  %this1 = load ptr, ptr %this.addr, align 8
  %0 = load double, ptr %date.addr, align 8
  %1 = load ptr, ptr %status.addr, align 8
  call void @_ZN6icu_758Calendar15setTimeInMillisEdR10UErrorCode(ptr noundef nonnull align 8 dereferenceable(618) %this1, double noundef %0, ptr noundef nonnull align 4 dereferenceable(4) %1)
  ret void
}

; Function Attrs: mustprogress nounwind uwtable
define internal noundef signext i8 @_ZL9U_FAILURE10UErrorCode(i32 noundef %code) #0 {
entry:
  %code.addr = alloca i32, align 4
  store i32 %code, ptr %code.addr, align 4
  %0 = load i32, ptr %code.addr, align 4
  %cmp = icmp sgt i32 %0, 0
  %conv = zext i1 %cmp to i8
  ret i8 %conv
}

; Function Attrs: mustprogress uwtable
define noundef signext i8 @_ZNK6icu_7514SimpleTimeZone14inDaylightTimeEdR10UErrorCode(ptr noundef nonnull align 8 dereferenceable(160) %this, double noundef %date, ptr noundef nonnull align 4 dereferenceable(4) %status) unnamed_addr #1 align 2 personality ptr @__gxx_personality_v0 {
entry:
  %retval = alloca i8, align 1
  %this.addr = alloca ptr, align 8
  %date.addr = alloca double, align 8
  %status.addr = alloca ptr, align 8
  %gc = alloca ptr, align 8
  %saved-rvalue = alloca ptr, align 8
  %cleanup.cond = alloca i1, align 1
  %exn.slot = alloca ptr, align 8
  %ehselector.slot = alloca i32, align 4
  %result = alloca i8, align 1
  store ptr %this, ptr %this.addr, align 8
  store double %date, ptr %date.addr, align 8
  store ptr %status, ptr %status.addr, align 8
  %this1 = load ptr, ptr %this.addr, align 8
  %0 = load ptr, ptr %status.addr, align 8
  %1 = load i32, ptr %0, align 4
  %call = call noundef signext i8 @_ZL9U_FAILURE10UErrorCode(i32 noundef %1)
  %tobool = icmp ne i8 %call, 0
  br i1 %tobool, label %if.then, label %if.end

if.then:                                          ; preds = %entry
  store i8 0, ptr %retval, align 1
  br label %return

if.end:                                           ; preds = %entry
  %call2 = call noundef ptr @_ZN6icu_757UMemorynwEm(i64 noundef 656) #5
  %new.isnull = icmp eq ptr %call2, null
  store i1 false, ptr %cleanup.cond, align 1
  br i1 %new.isnull, label %new.cont, label %new.notnull

new.notnull:                                      ; preds = %if.end
  store ptr %call2, ptr %saved-rvalue, align 8
  store i1 true, ptr %cleanup.cond, align 1
  %2 = load ptr, ptr %status.addr, align 8
  invoke void @_ZN6icu_7517GregorianCalendarC1ERKNS_8TimeZoneER10UErrorCode(ptr noundef nonnull align 8 dereferenceable(654) %call2, ptr noundef nonnull align 8 dereferenceable(72) %this1, ptr noundef nonnull align 4 dereferenceable(4) %2)
          to label %invoke.cont unwind label %lpad

invoke.cont:                                      ; preds = %new.notnull
  br label %new.cont

new.cont:                                         ; preds = %invoke.cont, %if.end
  %3 = phi ptr [ %call2, %invoke.cont ], [ null, %if.end ]
  store ptr %3, ptr %gc, align 8
  %4 = load ptr, ptr %gc, align 8
  %cmp = icmp eq ptr %4, null
  br i1 %cmp, label %if.then3, label %if.end4

if.then3:                                         ; preds = %new.cont
  %5 = load ptr, ptr %status.addr, align 8
  store i32 7, ptr %5, align 4
  store i8 0, ptr %retval, align 1
  br label %return

lpad:                                             ; preds = %new.notnull
  %6 = landingpad { ptr, i32 }
          cleanup
  %7 = extractvalue { ptr, i32 } %6, 0
  store ptr %7, ptr %exn.slot, align 8
  %8 = extractvalue { ptr, i32 } %6, 1
  store i32 %8, ptr %ehselector.slot, align 4
  %cleanup.is_active = load i1, ptr %cleanup.cond, align 1
  br i1 %cleanup.is_active, label %cleanup.action, label %cleanup.done

cleanup.action:                                   ; preds = %lpad
  %9 = load ptr, ptr %saved-rvalue, align 8
  call void @_ZN6icu_757UMemorydlEPv(ptr noundef %9) #5
  br label %cleanup.done

cleanup.done:                                     ; preds = %cleanup.action, %lpad
  br label %eh.resume

if.end4:                                          ; preds = %new.cont
  %10 = load ptr, ptr %gc, align 8
  %11 = load double, ptr %date.addr, align 8
  %12 = load ptr, ptr %status.addr, align 8
  call void @_ZN6icu_758Calendar7setTimeEdR10UErrorCode(ptr noundef nonnull align 8 dereferenceable(618) %10, double noundef %11, ptr noundef nonnull align 4 dereferenceable(4) %12)
  %13 = load ptr, ptr %gc, align 8
  %14 = load ptr, ptr %status.addr, align 8
  %vtable = load ptr, ptr %13, align 8
  %vfn = getelementptr inbounds ptr, ptr %vtable, i64 12
  %15 = load ptr, ptr %vfn, align 8
  %call5 = call noundef signext i8 %15(ptr noundef nonnull align 8 dereferenceable(618) %13, ptr noundef nonnull align 4 dereferenceable(4) %14)
  store i8 %call5, ptr %result, align 1
  %16 = load ptr, ptr %gc, align 8
  %isnull = icmp eq ptr %16, null
  br i1 %isnull, label %delete.end, label %delete.notnull

delete.notnull:                                   ; preds = %if.end4
  %vtable6 = load ptr, ptr %16, align 8
  %vfn7 = getelementptr inbounds ptr, ptr %vtable6, i64 1
  %17 = load ptr, ptr %vfn7, align 8
  call void %17(ptr noundef nonnull align 8 dereferenceable(654) %16) #5
  br label %delete.end

delete.end:                                       ; preds = %delete.notnull, %if.end4
  %18 = load i8, ptr %result, align 1
  store i8 %18, ptr %retval, align 1
  br label %return

return:                                           ; preds = %delete.end, %if.then3, %if.then
  %19 = load i8, ptr %retval, align 1
  ret i8 %19

eh.resume:                                        ; preds = %cleanup.done
  %exn = load ptr, ptr %exn.slot, align 8
  %sel = load i32, ptr %ehselector.slot, align 4
  %lpad.val = insertvalue { ptr, i32 } poison, ptr %exn, 0
  %lpad.val8 = insertvalue { ptr, i32 } %lpad.val, i32 %sel, 1
  resume { ptr, i32 } %lpad.val8
}