; Function Attrs: mustprogress uwtable
define noundef signext i8 @_ZNK6icu_7514SimpleTimeZone14inDaylightTimeEdR10UErrorCode(ptr noundef nonnull align 8 dereferenceable(160) %this, double noundef %date, ptr noundef nonnull align 4 dereferenceable(4) %status) unnamed_addr #1 align 2 personality ptr @__gxx_personality_v0 {
entry:
  %0 = load i32, ptr %status, align 4
  %cmp.i = icmp slt i32 %0, 1
  br i1 %cmp.i, label %if.end, label %return

if.end:                                           ; preds = %entry
  %call2 = tail call noundef ptr @_ZN6icu_757UMemorynwEm(i64 noundef 656) #13
  %new.isnull = icmp eq ptr %call2, null
  br i1 %new.isnull, label %if.then3, label %new.notnull

new.notnull:                                      ; preds = %if.end
  invoke void @_ZN6icu_7517GregorianCalendarC1ERKNS_8TimeZoneER10UErrorCode(ptr noundef nonnull align 8 dereferenceable(654) %call2, ptr noundef nonnull align 8 dereferenceable(72) %this, ptr noundef nonnull align 4 dereferenceable(4) %status)
          to label %if.end4 unwind label %lpad

if.then3:                                         ; preds = %if.end
  store i32 7, ptr %status, align 4
  br label %return

lpad:                                             ; preds = %new.notnull
  %1 = landingpad { ptr, i32 }
          cleanup
  tail call void @_ZN6icu_757UMemorydlEPv(ptr noundef nonnull %call2) #13
  resume { ptr, i32 } %1

if.end4:                                          ; preds = %new.notnull
  tail call void @_ZN6icu_758Calendar15setTimeInMillisEdR10UErrorCode(ptr noundef nonnull align 8 dereferenceable(618) %call2, double noundef %date, ptr noundef nonnull align 4 dereferenceable(4) %status)
  %vtable = load ptr, ptr %call2, align 8
  %vfn = getelementptr inbounds i8, ptr %vtable, i64 96
  %2 = load ptr, ptr %vfn, align 8
  %call5 = tail call noundef signext i8 %2(ptr noundef nonnull align 8 dereferenceable(618) %call2, ptr noundef nonnull align 4 dereferenceable(4) %status)
  %vtable6 = load ptr, ptr %call2, align 8
  %vfn7 = getelementptr inbounds i8, ptr %vtable6, i64 8
  %3 = load ptr, ptr %vfn7, align 8
  tail call void %3(ptr noundef nonnull align 8 dereferenceable(654) %call2) #13
  br label %return

return:                                           ; preds = %entry, %if.end4, %if.then3
  %retval.0 = phi i8 [ 0, %if.then3 ], [ %call5, %if.end4 ], [ 0, %entry ]
  ret i8 %retval.0
}